target datalayout = "e-m:e-p270:32:32-p271:32:32-p272:64:64-i64:64-i128:128-f80:128-n8:16:32:64-S128"
target triple = "x86_64-pc-linux-gnu"

%struct.H5EA_class_t = type { i32, ptr, i64, ptr, ptr, ptr, ptr, ptr, ptr, ptr, ptr }
%struct.H5EA_hdr_t = type { %struct.H5C_cache_entry_t, %struct.H5EA_create_t, i64, %struct.H5EA_stat_t, %struct.anon.1, i64, i64, i64, ptr, i64, i8, i64, i64, i8, i64, ptr, i64, ptr, i8, ptr, ptr }
%struct.H5C_cache_entry_t = type { ptr, i64, i64, ptr, i8, ptr, i8, i8, i8, i8, i32, i8, i8, i8, i8, i8, i32, ptr, i32, i32, i32, i32, i32, i8, i8, ptr, ptr, ptr, ptr, ptr, ptr, i8, i32, i8, i64, ptr, i64, i64, i32, i8, i32, i32, i8, ptr, ptr, ptr }
%struct.H5EA_create_t = type { ptr, i8, i8, i8, i8, i8, i8 }
%struct.H5EA_stat_t = type { %struct.anon, %struct.anon.0 }
%struct.anon = type { i64, i64, i64 }
%struct.anon.0 = type { i64, i64, i64, i64, i64, i64 }
%struct.anon.1 = type { i64, ptr }
%struct.H5EA_t = type { ptr, ptr }

@H5EA_init_g = global i8 0, align 1
@H5_libterm_g = external global i8, align 1
@.str = private unnamed_addr constant [98 x i8] c"generated/home/dtcxzyw/WorkSpace/Projects/compilers/llvm-opt-benchmark/bench/hdf5/hdf5/src/H5EA.c\00", align 1
@H5E_EARRAY_g = external global i64, align 8
@__func__.H5EA_set = private unnamed_addr constant [9 x i8] c"H5EA_set\00", align 1
@H5E_CANTPROTECT_g = external global i64, align 8
@.str.4 = private unnamed_addr constant [33 x i8] c"unable to protect array metadata\00", align 1
@H5E_CANTMARKDIRTY_g = external global i64, align 8
@.str.5 = private unnamed_addr constant [51 x i8] c"unable to mark extensible array header as modified\00", align 1
@H5E_CANTUNPROTECT_g = external global i64, align 8
@.str.6 = private unnamed_addr constant [44 x i8] c"unable to release extensible array metadata\00", align 1

; Function Attrs: nounwind uwtable
define i32 @H5EA_set(ptr noundef %0, i64 noundef %1, ptr noundef %2) #0 {
  %4 = alloca ptr, align 8
  %5 = alloca i64, align 8
  %6 = alloca ptr, align 8
  %7 = alloca ptr, align 8
  %8 = alloca ptr, align 8
  %9 = alloca ptr, align 8
  %10 = alloca i64, align 8
  %11 = alloca ptr, align 8
  %12 = alloca i8, align 1
  %13 = alloca i32, align 4
  %14 = alloca i32, align 4
  %15 = alloca i8, align 1
  store ptr %0, ptr %4, align 8, !tbaa !11
  store i64 %1, ptr %5, align 8, !tbaa !17
  store ptr %2, ptr %6, align 8, !tbaa !10
  call void @llvm.lifetime.start.p0(i64 8, ptr %7) #6
  %16 = load ptr, ptr %4, align 8, !tbaa !11
  %17 = getelementptr inbounds nuw %struct.H5EA_t, ptr %16, i32 0, i32 0
  %18 = load ptr, ptr %17, align 8, !tbaa !40
  store ptr %18, ptr %7, align 8, !tbaa !19
  call void @llvm.lifetime.start.p0(i64 8, ptr %8) #6
  store ptr null, ptr %8, align 8, !tbaa !10
  call void @llvm.lifetime.start.p0(i64 8, ptr %9) #6
  call void @llvm.lifetime.start.p0(i64 8, ptr %10) #6
  call void @llvm.lifetime.start.p0(i64 8, ptr %11) #6
  call void @llvm.lifetime.start.p0(i64 1, ptr %12) #6
  call void @llvm.lifetime.start.p0(i64 4, ptr %13) #6
  store i32 0, ptr %13, align 4, !tbaa !43
  call void @llvm.lifetime.start.p0(i64 4, ptr %14) #6
  store i32 0, ptr %14, align 4, !tbaa !43
  call void @llvm.lifetime.start.p0(i64 1, ptr %15) #6
  store i8 0, ptr %15, align 1, !tbaa !13
  %19 = load i8, ptr @H5EA_init_g, align 1, !tbaa !13, !range !15, !noundef !16
  %20 = trunc i8 %19 to i1
  br i1 %20, label %25, label %21

21:                                               ; preds = %3
  %22 = load i8, ptr @H5_libterm_g, align 1, !tbaa !13, !range !15, !noundef !16
  %23 = trunc i8 %22 to i1
  %24 = xor i1 %23, true
  br label %25

25:                                               ; preds = %21, %3
  %26 = phi i1 [ false, %3 ], [ %24, %21 ]
  %27 = xor i1 %26, true
  %28 = xor i1 %27, true
  %29 = zext i1 %28 to i32
  %30 = sext i32 %29 to i64
  %31 = call i64 @llvm.expect.i64(i64 %30, i64 0)
  %32 = icmp ne i64 %31, 0
  br i1 %32, label %33, label %34

33:                                               ; preds = %25
  store i8 1, ptr @H5EA_init_g, align 1, !tbaa !13
  br label %34

34:                                               ; preds = %33, %25
  %35 = load i8, ptr @H5EA_init_g, align 1, !tbaa !13, !range !15, !noundef !16
  %36 = trunc i8 %35 to i1
  br i1 %36, label %41, label %37

37:                                               ; preds = %34
  %38 = load i8, ptr @H5_libterm_g, align 1, !tbaa !13, !range !15, !noundef !16
  %39 = trunc i8 %38 to i1
  %40 = xor i1 %39, true
  br label %41

41:                                               ; preds = %37, %34
  %42 = phi i1 [ true, %34 ], [ %40, %37 ]
  %43 = xor i1 %42, true
  %44 = xor i1 %43, true
  %45 = zext i1 %44 to i32
  %46 = sext i32 %45 to i64
  %47 = call i64 @llvm.expect.i64(i64 %46, i64 1)
  %48 = icmp ne i64 %47, 0
  br i1 %48, label %49, label %167

49:                                               ; preds = %41
  %50 = load ptr, ptr %4, align 8, !tbaa !11
  %51 = getelementptr inbounds nuw %struct.H5EA_t, ptr %50, i32 0, i32 1
  %52 = load ptr, ptr %51, align 8, !tbaa !42
  %53 = load ptr, ptr %7, align 8, !tbaa !19
  %54 = getelementptr inbounds nuw %struct.H5EA_hdr_t, ptr %53, i32 0, i32 8
  store ptr %52, ptr %54, align 8, !tbaa !44
  %55 = load i64, ptr %5, align 8, !tbaa !17
  %56 = load ptr, ptr %7, align 8, !tbaa !19
  %57 = getelementptr inbounds nuw %struct.H5EA_hdr_t, ptr %56, i32 0, i32 3
  %58 = getelementptr inbounds nuw %struct.H5EA_stat_t, ptr %57, i32 0, i32 1
  %59 = getelementptr inbounds nuw %struct.anon.0, ptr %58, i32 0, i32 4
  %60 = load i64, ptr %59, align 8, !tbaa !47
  %61 = icmp uge i64 %55, %60
  %62 = zext i1 %61 to i8
  store i8 %62, ptr %12, align 1, !tbaa !13
  %63 = load ptr, ptr %4, align 8, !tbaa !11
  %64 = load i64, ptr %5, align 8, !tbaa !17
  %65 = load i8, ptr %12, align 1, !tbaa !13, !range !15, !noundef !16
  %66 = trunc i8 %65 to i1
  %67 = call i32 @H5EA__lookup_elmt(ptr noundef %63, i64 noundef %64, i1 noundef zeroext %66, i32 noundef 0, ptr noundef %8, ptr noundef %9, ptr noundef %10, ptr noundef %11)
  %68 = icmp slt i32 %67, 0
  br i1 %68, label %69, label %88

69:                                               ; preds = %49
  br label %70

70:                                               ; preds = %69
  br label %71

71:                                               ; preds = %70
  br label %72

72:                                               ; preds = %71
  %73 = load i64, ptr @H5E_EARRAY_g, align 8, !tbaa !17
  %74 = load i64, ptr @H5E_CANTPROTECT_g, align 8, !tbaa !17
  %75 = call i32 (ptr, ptr, i32, i64, i64, ptr, ...) @H5E_printf_stack(ptr noundef @.str, ptr noundef @__func__.H5EA_set, i32 noundef 673, i64 noundef %73, i64 noundef %74, ptr noundef @.str.4)
  br label %76

76:                                               ; preds = %72
  br label %77

77:                                               ; preds = %76
  store i8 1, ptr %15, align 1, !tbaa !13
  %78 = load i8, ptr %15, align 1, !tbaa !13, !range !15, !noundef !16
  %79 = trunc i8 %78 to i1
  %80 = zext i1 %79 to i8
  store i8 %80, ptr %15, align 1, !tbaa !13
  br label %81

81:                                               ; preds = %77
  br label %82

82:                                               ; preds = %81
  br label %83

83:                                               ; preds = %82
  store i32 -1, ptr %14, align 4, !tbaa !43
  br label %141

84:                                               ; No predecessors!
  br label %85

85:                                               ; preds = %84
  br label %86

86:                                               ; preds = %85
  br label %87

87:                                               ; preds = %86
  br label %88

88:                                               ; preds = %87, %49
  %89 = load ptr, ptr %9, align 8, !tbaa !48
  %90 = load ptr, ptr %7, align 8, !tbaa !19
  %91 = getelementptr inbounds nuw %struct.H5EA_hdr_t, ptr %90, i32 0, i32 1
  %92 = getelementptr inbounds nuw %struct.H5EA_create_t, ptr %91, i32 0, i32 0
  %93 = load ptr, ptr %92, align 8, !tbaa !50
  %94 = getelementptr inbounds nuw %struct.H5EA_class_t, ptr %93, i32 0, i32 2
  %95 = load i64, ptr %94, align 8, !tbaa !51
  %96 = load i64, ptr %10, align 8, !tbaa !17
  %97 = mul i64 %95, %96
  %98 = getelementptr inbounds nuw i8, ptr %89, i64 %97
  %99 = load ptr, ptr %6, align 8, !tbaa !10
  %100 = load ptr, ptr %7, align 8, !tbaa !19
  %101 = getelementptr inbounds nuw %struct.H5EA_hdr_t, ptr %100, i32 0, i32 1
  %102 = getelementptr inbounds nuw %struct.H5EA_create_t, ptr %101, i32 0, i32 0
  %103 = load ptr, ptr %102, align 8, !tbaa !50
  %104 = getelementptr inbounds nuw %struct.H5EA_class_t, ptr %103, i32 0, i32 2
  %105 = load i64, ptr %104, align 8, !tbaa !51
  call void @llvm.memcpy.p0.p0.i64(ptr align 1 %98, ptr align 1 %99, i64 %105, i1 false)
  %106 = load i32, ptr %13, align 4, !tbaa !43
  %107 = or i32 %106, 2
  store i32 %107, ptr %13, align 4, !tbaa !43
  %108 = load i8, ptr %12, align 1, !tbaa !13, !range !15, !noundef !16
  %109 = trunc i8 %108 to i1
  br i1 %109, label %110, label %140

110:                                              ; preds = %88
  %111 = load i64, ptr %5, align 8, !tbaa !17
  %112 = add i64 %111, 1
  %113 = load ptr, ptr %7, align 8, !tbaa !19
  %114 = getelementptr inbounds nuw %struct.H5EA_hdr_t, ptr %113, i32 0, i32 3
  %115 = getelementptr inbounds nuw %struct.H5EA_stat_t, ptr %114, i32 0, i32 1
  %116 = getelementptr inbounds nuw %struct.anon.0, ptr %115, i32 0, i32 4
  store i64 %112, ptr %116, align 8, !tbaa !47
  %117 = load ptr, ptr %7, align 8, !tbaa !19
  %118 = call i32 @H5EA__hdr_modified(ptr noundef %117)
  %119 = icmp slt i32 %118, 0
  br i1 %119, label %120, label %139

120:                                              ; preds = %110
  br label %121

121:                                              ; preds = %120
  br label %122

122:                                              ; preds = %121
  br label %123

123:                                              ; preds = %122
  %124 = load i64, ptr @H5E_EARRAY_g, align 8, !tbaa !17
  %125 = load i64, ptr @H5E_CANTMARKDIRTY_g, align 8, !tbaa !17
  %126 = call i32 (ptr, ptr, i32, i64, i64, ptr, ...) @H5E_printf_stack(ptr noundef @.str, ptr noundef @__func__.H5EA_set, i32 noundef 691, i64 noundef %124, i64 noundef %125, ptr noundef @.str.5)
  br label %127

127:                                              ; preds = %123
  br label %128

128:                                              ; preds = %127
  store i8 1, ptr %15, align 1, !tbaa !13
  %129 = load i8, ptr %15, align 1, !tbaa !13, !range !15, !noundef !16
  %130 = trunc i8 %129 to i1
  %131 = zext i1 %130 to i8
  store i8 %131, ptr %15, align 1, !tbaa !13
  br label %132

132:                                              ; preds = %128
  br label %133

133:                                              ; preds = %132
  br label %134

134:                                              ; preds = %133
  store i32 -1, ptr %14, align 4, !tbaa !43
  br label %141

135:                                              ; No predecessors!
  br label %136

136:                                              ; preds = %135
  br label %137

137:                                              ; preds = %136
  br label %138

138:                                              ; preds = %137
  br label %139

139:                                              ; preds = %138, %110
  br label %140

140:                                              ; preds = %139, %88
  br label %141

141:                                              ; preds = %140, %134, %83
  %142 = load ptr, ptr %8, align 8, !tbaa !10
  %143 = icmp ne ptr %142, null
  br i1 %143, label %144, label %166

144:                                              ; preds = %141
  %145 = load ptr, ptr %11, align 8, !tbaa !10
  %146 = load ptr, ptr %8, align 8, !tbaa !10
  %147 = load i32, ptr %13, align 4, !tbaa !43
  %148 = call i32 %145(ptr noundef %146, i32 noundef %147)
  %149 = icmp slt i32 %148, 0
  br i1 %149, label %150, label %166

150:                                              ; preds = %144
  br label %151

151:                                              ; preds = %150
  br label %152

152:                                              ; preds = %151
  br label %153

153:                                              ; preds = %152
  %154 = load i64, ptr @H5E_EARRAY_g, align 8, !tbaa !17
  %155 = load i64, ptr @H5E_CANTUNPROTECT_g, align 8, !tbaa !17
  %156 = call i32 (ptr, ptr, i32, i64, i64, ptr, ...) @H5E_printf_stack(ptr noundef @.str, ptr noundef @__func__.H5EA_set, i32 noundef 697, i64 noundef %154, i64 noundef %155, ptr noundef @.str.6)
  br label %157

157:                                              ; preds = %153
  br label %158

158:                                              ; preds = %157
  store i8 1, ptr %15, align 1, !tbaa !13
  %159 = load i8, ptr %15, align 1, !tbaa !13, !range !15, !noundef !16
  %160 = trunc i8 %159 to i1
  %161 = zext i1 %160 to i8
  store i8 %161, ptr %15, align 1, !tbaa !13
  br label %162

162:                                              ; preds = %158
  br label %163

163:                                              ; preds = %162
  store i32 -1, ptr %14, align 4, !tbaa !43
  br label %164

164:                                              ; preds = %163
  br label %165

165:                                              ; preds = %164
  br label %166

166:                                              ; preds = %165, %144, %141
  br label %167

167:                                              ; preds = %166, %41
  %168 = load i32, ptr %14, align 4, !tbaa !43
  call void @llvm.lifetime.end.p0(i64 1, ptr %15) #6
  call void @llvm.lifetime.end.p0(i64 4, ptr %14) #6
  call void @llvm.lifetime.end.p0(i64 4, ptr %13) #6
  call void @llvm.lifetime.end.p0(i64 1, ptr %12) #6
  call void @llvm.lifetime.end.p0(i64 8, ptr %11) #6
  call void @llvm.lifetime.end.p0(i64 8, ptr %10) #6
  call void @llvm.lifetime.end.p0(i64 8, ptr %9) #6
  call void @llvm.lifetime.end.p0(i64 8, ptr %8) #6
  call void @llvm.lifetime.end.p0(i64 8, ptr %7) #6
  ret i32 %168
}