; Function Attrs: nounwind uwtable
define range(i32 -1, 1) i32 @H5EA_set(ptr noundef readonly captures(none) %0, i64 noundef %1, ptr noundef readonly captures(none) %2) local_unnamed_addr #0 {
  %4 = alloca ptr, align 8
  %5 = alloca ptr, align 8
  %6 = alloca i64, align 8
  %7 = alloca ptr, align 8
  %8 = load ptr, ptr %0, align 8, !tbaa !34
  call void @llvm.lifetime.start.p0(i64 8, ptr nonnull %4) #5
  store ptr null, ptr %4, align 8, !tbaa !41
  call void @llvm.lifetime.start.p0(i64 8, ptr nonnull %5) #5
  call void @llvm.lifetime.start.p0(i64 8, ptr nonnull %6) #5
  call void @llvm.lifetime.start.p0(i64 8, ptr nonnull %7) #5
  %9 = load i8, ptr @H5EA_init_g, align 1, !tbaa !3, !range !7, !noundef !8
  %10 = trunc nuw i8 %9 to i1
  %11 = load i8, ptr @H5_libterm_g, align 1, !range !7
  %12 = trunc nuw i8 %11 to i1
  %13 = select i1 %10, i1 true, i1 %12
  br i1 %13, label %14, label %.thread, !prof !9

.thread:                                          ; preds = %3
  store i8 1, ptr @H5EA_init_g, align 1, !tbaa !3
  br label %17

14:                                               ; preds = %3
  %15 = xor i1 %12, true
  %16 = select i1 %10, i1 true, i1 %15
  br i1 %16, label %17, label %57, !prof !10

17:                                               ; preds = %.thread, %14
  %18 = getelementptr inbounds nuw i8, ptr %0, i64 8
  %19 = load ptr, ptr %18, align 8, !tbaa !37
  %20 = getelementptr inbounds nuw i8, ptr %8, i64 384
  store ptr %19, ptr %20, align 8, !tbaa !38
  %21 = getelementptr inbounds nuw i8, ptr %8, i64 328
  %22 = load i64, ptr %21, align 8, !tbaa !40
  %23 = icmp uge i64 %1, %22
  %24 = call fastcc i32 @H5EA__lookup_elmt(ptr noundef nonnull %0, i64 noundef %1, i1 noundef zeroext %23, i32 noundef 0, ptr noundef %4, ptr noundef %5, ptr noundef %6, ptr noundef %7)
  %25 = icmp slt i32 %24, 0
  br i1 %25, label %26, label %30

26:                                               ; preds = %17
  %27 = load i64, ptr @H5E_EARRAY_g, align 8, !tbaa !11
  %28 = load i64, ptr @H5E_CANTPROTECT_g, align 8, !tbaa !11
  %29 = tail call i32 (ptr, ptr, i32, i64, i64, ptr, ...) @H5E_printf_stack(ptr noundef nonnull @.str, ptr noundef nonnull @__func__.H5EA_set, i32 noundef 673, i64 noundef %27, i64 noundef %28, ptr noundef nonnull @.str.4) #5
  br label %47

30:                                               ; preds = %17
  %31 = load ptr, ptr %5, align 8, !tbaa !42
  %32 = getelementptr inbounds nuw i8, ptr %8, i64 248
  %33 = load ptr, ptr %32, align 8, !tbaa !44
  %34 = getelementptr inbounds nuw i8, ptr %33, i64 16
  %35 = load i64, ptr %34, align 8, !tbaa !45
  %36 = load i64, ptr %6, align 8, !tbaa !11
  %37 = mul i64 %36, %35
  %38 = getelementptr inbounds nuw i8, ptr %31, i64 %37
  tail call void @llvm.memcpy.p0.p0.i64(ptr align 1 %38, ptr align 1 %2, i64 %35, i1 false)
  br i1 %23, label %39, label %47

39:                                               ; preds = %30
  %40 = add i64 %1, 1
  store i64 %40, ptr %21, align 8, !tbaa !40
  %41 = tail call i32 @H5EA__hdr_modified(ptr noundef nonnull %8) #5
  %42 = icmp slt i32 %41, 0
  br i1 %42, label %43, label %47

43:                                               ; preds = %39
  %44 = load i64, ptr @H5E_EARRAY_g, align 8, !tbaa !11
  %45 = load i64, ptr @H5E_CANTMARKDIRTY_g, align 8, !tbaa !11
  %46 = tail call i32 (ptr, ptr, i32, i64, i64, ptr, ...) @H5E_printf_stack(ptr noundef nonnull @.str, ptr noundef nonnull @__func__.H5EA_set, i32 noundef 691, i64 noundef %44, i64 noundef %45, ptr noundef nonnull @.str.5) #5
  br label %47

47:                                               ; preds = %30, %39, %43, %26
  %.020 = phi i32 [ 0, %26 ], [ 2, %43 ], [ 2, %39 ], [ 2, %30 ]
  %.1 = phi i32 [ -1, %26 ], [ -1, %43 ], [ 0, %39 ], [ 0, %30 ]
  %48 = load ptr, ptr %4, align 8, !tbaa !41
  %.not = icmp eq ptr %48, null
  br i1 %.not, label %57, label %49

49:                                               ; preds = %47
  %50 = load ptr, ptr %7, align 8, !tbaa !41
  %51 = tail call i32 %50(ptr noundef nonnull %48, i32 noundef %.020) #5
  %52 = icmp slt i32 %51, 0
  br i1 %52, label %53, label %57

53:                                               ; preds = %49
  %54 = load i64, ptr @H5E_EARRAY_g, align 8, !tbaa !11
  %55 = load i64, ptr @H5E_CANTUNPROTECT_g, align 8, !tbaa !11
  %56 = tail call i32 (ptr, ptr, i32, i64, i64, ptr, ...) @H5E_printf_stack(ptr noundef nonnull @.str, ptr noundef nonnull @__func__.H5EA_set, i32 noundef 697, i64 noundef %54, i64 noundef %55, ptr noundef nonnull @.str.6) #5
  br label %57

57:                                               ; preds = %47, %49, %53, %14
  %.0 = phi i32 [ -1, %53 ], [ %.1, %49 ], [ %.1, %47 ], [ 0, %14 ]
  call void @llvm.lifetime.end.p0(i64 8, ptr nonnull %7) #5
  call void @llvm.lifetime.end.p0(i64 8, ptr nonnull %6) #5
  call void @llvm.lifetime.end.p0(i64 8, ptr nonnull %5) #5
  call void @llvm.lifetime.end.p0(i64 8, ptr nonnull %4) #5
  ret i32 %.0
}